target datalayout = "e-m:e-p270:32:32-p271:32:32-p272:64:64-i64:64-i128:128-f80:128-n8:16:32:64-S128"
target triple = "x86_64-pc-linux-gnu"

%"class.cv::Scalar_" = type { %"class.cv::Vec" }
%"class.cv::Vec" = type { %"class.cv::Matx" }
%"class.cv::Matx" = type { [4 x double] }
%"struct.cv::dnn::dnn4_v20241223::Image2BlobParams" = type { %"class.cv::Scalar_", %"class.cv::Size_", %"class.cv::Scalar_", i8, i32, i32, i32, %"class.cv::Scalar_" }
%"class.cv::Size_" = type { i32, i32 }

; Function Attrs: inlinehint mustprogress nounwind uwtable
define linkonce_odr hidden void @_ZN2cv4MatxIdLi4ELi1EEC2EPKd(ptr noundef nonnull align 8 dereferenceable(32) %0, ptr noundef %1) unnamed_addr #6 comdat align 2 {
  %3 = alloca ptr, align 8
  %4 = alloca ptr, align 8
  %5 = alloca i32, align 4
  store ptr %0, ptr %3, align 8, !tbaa !162
  store ptr %1, ptr %4, align 8, !tbaa !164
  %6 = load ptr, ptr %3, align 8
  call void @llvm.lifetime.start.p0(i64 4, ptr %5) #3
  store i32 0, ptr %5, align 4, !tbaa !30
  br label %7

7:                                                ; preds = %21, %2
  %8 = load i32, ptr %5, align 4, !tbaa !30
  %9 = icmp slt i32 %8, 4
  br i1 %9, label %11, label %10

10:                                               ; preds = %7
  call void @llvm.lifetime.end.p0(i64 4, ptr %5) #3
  br label %24

11:                                               ; preds = %7
  %12 = load ptr, ptr %4, align 8, !tbaa !164
  %13 = load i32, ptr %5, align 4, !tbaa !30
  %14 = sext i32 %13 to i64
  %15 = getelementptr inbounds double, ptr %12, i64 %14
  %16 = load double, ptr %15, align 8, !tbaa !21
  %17 = getelementptr inbounds nuw %"class.cv::Matx", ptr %6, i32 0, i32 0
  %18 = load i32, ptr %5, align 4, !tbaa !30
  %19 = sext i32 %18 to i64
  %20 = getelementptr inbounds [4 x double], ptr %17, i64 0, i64 %19
  store double %16, ptr %20, align 8, !tbaa !21
  br label %21

21:                                               ; preds = %11
  %22 = load i32, ptr %5, align 4, !tbaa !30
  %23 = add nsw i32 %22, 1
  store i32 %23, ptr %5, align 4, !tbaa !30
  br label %7, !llvm.loop !166

24:                                               ; preds = %10
  ret void
}

; Function Attrs: inlinehint mustprogress uwtable
define linkonce_odr hidden void @_ZN2cv3VecIdLi4EEC2ERKS1_(ptr noundef nonnull align 8 dereferenceable(32) %0, ptr noundef nonnull align 8 dereferenceable(32) %1) unnamed_addr #5 comdat align 2 {
  %3 = alloca ptr, align 8
  %4 = alloca ptr, align 8
  store ptr %0, ptr %3, align 8, !tbaa !160
  store ptr %1, ptr %4, align 8, !tbaa !160
  %5 = load ptr, ptr %3, align 8
  %6 = load ptr, ptr %4, align 8, !tbaa !160
  %7 = getelementptr inbounds nuw %"class.cv::Matx", ptr %6, i32 0, i32 0
  %8 = getelementptr inbounds [4 x double], ptr %7, i64 0, i64 0
  call void @_ZN2cv4MatxIdLi4ELi1EEC2EPKd(ptr noundef nonnull align 8 dereferenceable(32) %5, ptr noundef %8)
  ret void
}

; Function Attrs: inlinehint mustprogress uwtable
define linkonce_odr hidden void @_ZN2cv7Scalar_IdEC2ERKS1_(ptr noundef nonnull align 8 dereferenceable(32) %0, ptr noundef nonnull align 8 dereferenceable(32) %1) unnamed_addr #5 comdat align 2 {
  %3 = alloca ptr, align 8
  %4 = alloca ptr, align 8
  store ptr %0, ptr %3, align 8, !tbaa !27
  store ptr %1, ptr %4, align 8, !tbaa !27
  %5 = load ptr, ptr %3, align 8
  %6 = load ptr, ptr %4, align 8, !tbaa !27
  call void @_ZN2cv3VecIdLi4EEC2ERKS1_(ptr noundef nonnull align 8 dereferenceable(32) %5, ptr noundef nonnull align 8 dereferenceable(32) %6)
  ret void
}

; Function Attrs: mustprogress uwtable
define void @_ZN2cv3dnn14dnn4_v2024122316Image2BlobParamsC2ERKNS_7Scalar_IdEERKNS_5Size_IiEES6_biNS1_10DataLayoutENS1_16ImagePaddingModeES4_(ptr noundef nonnull align 8 dereferenceable(120) %0, ptr noundef nonnull align 8 dereferenceable(32) %1, ptr noundef nonnull align 4 dereferenceable(8) %2, ptr noundef nonnull align 8 dereferenceable(32) %3, i1 noundef zeroext %4, i32 noundef %5, i32 noundef %6, i32 noundef %7, ptr noundef %8) unnamed_addr #4 align 2 {
  %10 = alloca ptr, align 8
  %11 = alloca ptr, align 8
  %12 = alloca ptr, align 8
  %13 = alloca ptr, align 8
  %14 = alloca i8, align 1
  %15 = alloca i32, align 4
  %16 = alloca i32, align 4
  %17 = alloca i32, align 4
  %18 = alloca ptr, align 8
  store ptr %0, ptr %10, align 8, !tbaa !3
  store ptr %1, ptr %11, align 8, !tbaa !27
  store ptr %2, ptr %12, align 8, !tbaa !23
  store ptr %3, ptr %13, align 8, !tbaa !27
  %19 = zext i1 %4 to i8
  store i8 %19, ptr %14, align 1, !tbaa !29
  store i32 %5, ptr %15, align 4, !tbaa !30
  store i32 %6, ptr %16, align 4, !tbaa !31
  store i32 %7, ptr %17, align 4, !tbaa !32
  store ptr %8, ptr %18, align 8, !tbaa !27
  %20 = load ptr, ptr %10, align 8
  %21 = getelementptr inbounds nuw %"struct.cv::dnn::dnn4_v20241223::Image2BlobParams", ptr %20, i32 0, i32 0
  %22 = load ptr, ptr %11, align 8, !tbaa !27
  call void @_ZN2cv7Scalar_IdEC2ERKS1_(ptr noundef nonnull align 8 dereferenceable(32) %21, ptr noundef nonnull align 8 dereferenceable(32) %22)
  %23 = getelementptr inbounds nuw %"struct.cv::dnn::dnn4_v20241223::Image2BlobParams", ptr %20, i32 0, i32 1
  %24 = load ptr, ptr %12, align 8, !tbaa !23
  call void @llvm.memcpy.p0.p0.i64(ptr align 8 %23, ptr align 4 %24, i64 8, i1 false), !tbaa.struct !33
  %25 = getelementptr inbounds nuw %"struct.cv::dnn::dnn4_v20241223::Image2BlobParams", ptr %20, i32 0, i32 2
  %26 = load ptr, ptr %13, align 8, !tbaa !27
  call void @_ZN2cv7Scalar_IdEC2ERKS1_(ptr noundef nonnull align 8 dereferenceable(32) %25, ptr noundef nonnull align 8 dereferenceable(32) %26)
  %27 = getelementptr inbounds nuw %"struct.cv::dnn::dnn4_v20241223::Image2BlobParams", ptr %20, i32 0, i32 3
  %28 = load i8, ptr %14, align 1, !tbaa !29, !range !34, !noundef !35
  %29 = trunc i8 %28 to i1
  %30 = zext i1 %29 to i8
  store i8 %30, ptr %27, align 8, !tbaa !8
  %31 = getelementptr inbounds nuw %"struct.cv::dnn::dnn4_v20241223::Image2BlobParams", ptr %20, i32 0, i32 4
  %32 = load i32, ptr %15, align 4, !tbaa !30
  store i32 %32, ptr %31, align 4, !tbaa !18
  %33 = getelementptr inbounds nuw %"struct.cv::dnn::dnn4_v20241223::Image2BlobParams", ptr %20, i32 0, i32 5
  %34 = load i32, ptr %16, align 4, !tbaa !31
  store i32 %34, ptr %33, align 8, !tbaa !19
  %35 = getelementptr inbounds nuw %"struct.cv::dnn::dnn4_v20241223::Image2BlobParams", ptr %20, i32 0, i32 6
  %36 = load i32, ptr %17, align 4, !tbaa !32
  store i32 %36, ptr %35, align 4, !tbaa !20
  %37 = getelementptr inbounds nuw %"struct.cv::dnn::dnn4_v20241223::Image2BlobParams", ptr %20, i32 0, i32 7
  call void @_ZN2cv7Scalar_IdEC2ERKS1_(ptr noundef nonnull align 8 dereferenceable(32) %37, ptr noundef nonnull align 8 dereferenceable(32) %8)
  ret void
}