; Function Attrs: mustprogress nofree norecurse nosync nounwind memory(argmem: readwrite) uwtable
define void @_ZN2cv3dnn14dnn4_v2024122316Image2BlobParamsC2ERKNS_7Scalar_IdEERKNS_5Size_IiEES6_biNS1_10DataLayoutENS1_16ImagePaddingModeES4_(ptr noundef nonnull writeonly align 8 captures(none) dereferenceable(120) %0, ptr noundef nonnull readonly align 8 captures(none) dereferenceable(32) %1, ptr noundef nonnull readonly align 4 captures(none) dereferenceable(8) %2, ptr noundef nonnull readonly align 8 captures(none) dereferenceable(32) %3, i1 noundef zeroext %4, i32 noundef %5, i32 noundef %6, i32 noundef %7, ptr noundef readonly captures(none) %8) unnamed_addr #4 align 2 {
  br label %10

10:                                               ; preds = %10, %9
  %indvars.iv.i.i.i = phi i64 [ 0, %9 ], [ %indvars.iv.next.i.i.i, %10 ]
  %11 = getelementptr inbounds nuw double, ptr %1, i64 %indvars.iv.i.i.i
  %12 = load double, ptr %11, align 8, !tbaa !3
  %13 = getelementptr inbounds nuw [4 x double], ptr %0, i64 0, i64 %indvars.iv.i.i.i
  store double %12, ptr %13, align 8, !tbaa !3
  %indvars.iv.next.i.i.i = add nuw nsw i64 %indvars.iv.i.i.i, 1
  %exitcond.not.i.i.i = icmp eq i64 %indvars.iv.next.i.i.i, 4
  br i1 %exitcond.not.i.i.i, label %_ZN2cv7Scalar_IdEC2ERKS1_.exit, label %10, !llvm.loop !21

_ZN2cv7Scalar_IdEC2ERKS1_.exit:                   ; preds = %10
  %14 = getelementptr inbounds nuw i8, ptr %0, i64 32
  %15 = load i64, ptr %2, align 4
  store i64 %15, ptr %14, align 8
  %16 = getelementptr inbounds nuw i8, ptr %0, i64 40
  br label %17

17:                                               ; preds = %17, %_ZN2cv7Scalar_IdEC2ERKS1_.exit
  %indvars.iv.i.i.i7 = phi i64 [ 0, %_ZN2cv7Scalar_IdEC2ERKS1_.exit ], [ %indvars.iv.next.i.i.i8, %17 ]
  %18 = getelementptr inbounds nuw double, ptr %3, i64 %indvars.iv.i.i.i7
  %19 = load double, ptr %18, align 8, !tbaa !3
  %20 = getelementptr inbounds nuw [4 x double], ptr %16, i64 0, i64 %indvars.iv.i.i.i7
  store double %19, ptr %20, align 8, !tbaa !3
  %indvars.iv.next.i.i.i8 = add nuw nsw i64 %indvars.iv.i.i.i7, 1
  %exitcond.not.i.i.i9 = icmp eq i64 %indvars.iv.next.i.i.i8, 4
  br i1 %exitcond.not.i.i.i9, label %_ZN2cv7Scalar_IdEC2ERKS1_.exit10, label %17, !llvm.loop !21

_ZN2cv7Scalar_IdEC2ERKS1_.exit10:                 ; preds = %17
  %21 = zext i1 %4 to i8
  %22 = getelementptr inbounds nuw i8, ptr %0, i64 72
  store i8 %21, ptr %22, align 8, !tbaa !23
  %23 = getelementptr inbounds nuw i8, ptr %0, i64 76
  store i32 %5, ptr %23, align 4, !tbaa !10
  %24 = getelementptr inbounds nuw i8, ptr %0, i64 80
  store i32 %6, ptr %24, align 8, !tbaa !20
  %25 = getelementptr inbounds nuw i8, ptr %0, i64 84
  store i32 %7, ptr %25, align 4, !tbaa !24
  %26 = getelementptr inbounds nuw i8, ptr %0, i64 88
  br label %27

27:                                               ; preds = %27, %_ZN2cv7Scalar_IdEC2ERKS1_.exit10
  %indvars.iv.i.i.i11 = phi i64 [ 0, %_ZN2cv7Scalar_IdEC2ERKS1_.exit10 ], [ %indvars.iv.next.i.i.i12, %27 ]
  %28 = getelementptr inbounds nuw double, ptr %8, i64 %indvars.iv.i.i.i11
  %29 = load double, ptr %28, align 8, !tbaa !3
  %30 = getelementptr inbounds nuw [4 x double], ptr %26, i64 0, i64 %indvars.iv.i.i.i11
  store double %29, ptr %30, align 8, !tbaa !3
  %indvars.iv.next.i.i.i12 = add nuw nsw i64 %indvars.iv.i.i.i11, 1
  %exitcond.not.i.i.i13 = icmp eq i64 %indvars.iv.next.i.i.i12, 4
  br i1 %exitcond.not.i.i.i13, label %_ZN2cv7Scalar_IdEC2ERKS1_.exit14, label %27, !llvm.loop !21

_ZN2cv7Scalar_IdEC2ERKS1_.exit14:                 ; preds = %27
  ret void
}